Certificate:
    Data:
        Version: 3 (0x2)
        Serial Number:
            96:fc:46:c7:6d:09:4b:aa:06:63:61:8d:23:a4:de:7b
    Signature Algorithm: sha256WithRSAEncryption
        Issuer: CN=Easy-RSA CA
        Validity
            Not Before: May 30 16:47:20 2020 GMT
            Not After : Sep  2 16:47:20 2022 GMT
        Subject: CN=client
        Subject Public Key Info:
            Public Key Algorithm: rsaEncryption
                Public-Key: (2048 bit)
                Modulus:
                    00:c6:af:47:a5:6f:1f:34:59:c3:34:02:57:68:00:
                    c6:09:92:43:cf:c8:ff:a7:4d:cf:6c:0b:67:53:2a:
                    d9:c6:f3:67:0d:eb:66:e4:fd:2e:7a:d9:a5:3b:72:
                    7a:f0:4c:0a:48:8d:c9:2e:ff:e3:c7:de:20:e9:5f:
                    9e:56:ba:aa:8d:92:be:e3:ce:0c:fe:b8:80:11:4d:
                    7e:88:eb:c0:18:8a:45:5a:3e:96:c0:ea:de:7c:b9:
                    e4:f6:1e:1b:d6:62:24:53:9e:5f:c1:34:64:84:e3:
                    bd:f4:f7:e1:2f:46:64:0c:c6:e9:d3:9f:9b:65:0d:
                    4d:21:9d:2b:47:76:da:8f:ce:7d:0a:47:89:e8:78:
                    b6:af:fa:e8:a7:dd:c2:f5:53:0a:68:1f:95:ba:54:
                    df:c8:e0:d8:41:c3:fc:ba:41:28:9c:29:14:42:d9:
                    9b:cf:bb:4d:f1:9e:6a:79:94:91:99:3f:27:9a:9f:
                    cb:11:6e:b2:a4:ad:ea:4c:75:73:21:d9:f5:59:a1:
                    b5:1a:34:9a:f1:07:ca:c3:fc:a7:1b:82:4f:7f:e9:
                    d7:e1:e9:95:0e:02:fb:60:13:61:6a:bf:5d:8b:27:
                    51:7d:6b:10:2f:d5:45:a6:e9:5c:4c:74:a3:e8:0f:
                    69:26:58:43:b1:06:4f:15:e5:0a:df:60:fd:82:a6:
                    0d:7d
                Exponent: 65537 (0x10001)
        X509v3 extensions:
            X509v3 Basic Constraints: 
                CA:FALSE
            X509v3 Subject Key Identifier: 
                2F:61:04:66:CD:C9:98:08:57:E1:57:6F:B1:70:F2:35:81:F7:C3:66
            X509v3 Authority Key Identifier: 
                keyid:A0:28:85:AD:B5:5E:5C:14:D0:A5:0F:FC:00:6C:56:32:DC:7F:A3:DA
                DirName:/CN=Easy-RSA CA
                serial:B4:BD:E3:46:56:DC:30:CF

            X509v3 Extended Key Usage: 
                TLS Web Client Authentication
            X509v3 Key Usage: 
                Digital Signature
    Signature Algorithm: sha256WithRSAEncryption
         b8:f6:59:9e:c3:bf:77:17:83:f8:99:66:7b:4e:e9:6e:86:0e:
         d4:0b:49:cf:37:46:52:21:8f:c5:22:46:f1:76:7e:df:c7:c3:
         ac:db:be:4d:05:f7:b9:3f:0f:c2:a9:6f:69:a8:d0:83:15:82:
         5e:3d:40:68:90:84:c4:b4:e7:07:bd:47:f6:5a:b3:f5:e2:ce:
         d3:f7:62:6d:a5:a9:d6:c0:d6:43:44:1d:5c:a9:3b:d4:9a:1b:
         33:e4:93:6b:4e:4a:fe:8e:fa:87:5e:c8:e9:78:6e:c3:03:07:
         c2:cd:45:4a:49:14:f1:86:59:ac:cf:3b:26:b4:10:d1:da:a0:
         61:a1:61:f6:a7:b2:0d:57:c0:49:ed:20:86:22:10:3d:bb:82:
         9d:6e:29:b1:96:d4:57:a3:ac:1c:31:5a:1f:f8:ad:04:1b:de:
         0b:e6:ab:c3:12:49:c2:d1:a5:f0:0a:b0:a6:91:06:13:49:36:
         ed:36:a9:0a:19:ef:5a:66:80:e5:29:9a:c0:74:0c:a4:84:e3:
         9e:0a:67:14:c5:bc:9b:61:af:0c:02:b2:28:28:e5:c4:55:b0:
         23:e9:28:56:94:b9:a4:ee:38:76:9a:5c:06:7f:08:20:19:ef:
         f6:ce:96:3d:d2:4e:dd:f9:58:b5:54:93:91:7b:c0:6e:24:b5:
         39:ed:3c:90
-----BEGIN CERTIFICATE-----
MIIDSjCCAjKgAwIBAgIRAJb8RsdtCUuqBmNhjSOk3nswDQYJKoZIhvcNAQELBQAw
FjEUMBIGA1UEAwwLRWFzeS1SU0EgQ0EwHhcNMjAwNTMwMTY0NzIwWhcNMjIwOTAy
MTY0NzIwWjARMQ8wDQYDVQQDDAZjbGllbnQwggEiMA0GCSqGSIb3DQEBAQUAA4IB
DwAwggEKAoIBAQDGr0elbx80WcM0AldoAMYJkkPPyP+nTc9sC2dTKtnG82cN62bk
/S562aU7cnrwTApIjcku/+PH3iDpX55WuqqNkr7jzgz+uIARTX6I68AYikVaPpbA
6t58ueT2HhvWYiRTnl/BNGSE47309+EvRmQMxunTn5tlDU0hnStHdtqPzn0KR4no
eLav+uin3cL1UwpoH5W6VN/I4NhBw/y6QSicKRRC2ZvPu03xnmp5lJGZPyean8sR
brKkrepMdXMh2fVZobUaNJrxB8rD/Kcbgk9/6dfh6ZUOAvtgE2Fqv12LJ1F9axAv
1UWm6VxMdKPoD2kmWEOxBk8V5QrfYP2Cpg19AgMBAAGjgZcwgZQwCQYDVR0TBAIw
ADAdBgNVHQ4EFgQUL2EEZs3JmAhX4VdvsXDyNYH3w2YwRgYDVR0jBD8wPYAUoCiF
rbVeXBTQpQ/8AGxWMtx/o9qhGqQYMBYxFDASBgNVBAMMC0Vhc3ktUlNBIENBggkA
tL3jRlbcMM8wEwYDVR0lBAwwCgYIKwYBBQUHAwIwCwYDVR0PBAQDAgeAMA0GCSqG
SIb3DQEBCwUAA4IBAQC49lmew793F4P4mWZ7Tuluhg7UC0nPN0ZSIY/FIkbxdn7f
x8Os275NBfe5Pw/CqW9pqNCDFYJePUBokITEtOcHvUf2WrP14s7T92JtpanWwNZD
RB1cqTvUmhsz5JNrTkr+jvqHXsjpeG7DAwfCzUVKSRTxhlmszzsmtBDR2qBhoWH2
p7INV8BJ7SCGIhA9u4KdbimxltRXo6wcMVof+K0EG94L5qvDEknC0aXwCrCmkQYT
STbtNqkKGe9aZoDlKZrAdAykhOOeCmcUxbybYa8MArIoKOXEVbAj6ShWlLmk7jh2
mlwGfwggGe/2zpY90k7d+Vi1VJORe8BuJLU57TyQ
-----END CERTIFICATE-----
